; Function Attrs: nounwind uwtable
define noalias noundef ptr @Min_ManGetUnsolved(ptr noundef readonly captures(none) %0) local_unnamed_addr #0 {
  %2 = tail call noalias dereferenceable_or_null(16) ptr @malloc(i64 noundef 16) #26
  %3 = getelementptr inbounds nuw i8, ptr %2, i64 4
  store i32 0, ptr %3, align 4, !tbaa !30
  store i32 100, ptr %2, align 8, !tbaa !33
  %4 = tail call noalias dereferenceable_or_null(400) ptr @malloc(i64 noundef 400) #26
  %5 = getelementptr inbounds nuw i8, ptr %2, i64 8
  store ptr %4, ptr %5, align 8, !tbaa !32
  %6 = getelementptr inbounds nuw i8, ptr %0, i64 72
  %7 = load ptr, ptr %6, align 8, !tbaa !43
  %8 = getelementptr i8, ptr %7, i64 4
  %.val716 = load i32, ptr %8, align 4, !tbaa !30
  %9 = icmp sgt i32 %.val716, 0
  br i1 %9, label %.lr.ph, label %.critedge.thread

.lr.ph:                                           ; preds = %1
  %10 = getelementptr i8, ptr %0, i64 32
  br label %11

11:                                               ; preds = %.lr.ph, %45
  %12 = phi ptr [ %7, %.lr.ph ], [ %46, %45 ]
  %13 = phi ptr [ %4, %.lr.ph ], [ %.pre.i20, %45 ]
  %indvars.iv = phi i64 [ 0, %.lr.ph ], [ %indvars.iv.next, %45 ]
  %.val8 = load ptr, ptr %10, align 8, !tbaa !3
  %14 = getelementptr i8, ptr %12, i64 8
  %.val9.val = load ptr, ptr %14, align 8, !tbaa !32
  %15 = getelementptr inbounds nuw i32, ptr %.val9.val, i64 %indvars.iv
  %16 = load i32, ptr %15, align 4, !tbaa !35
  %17 = sext i32 %16 to i64
  %18 = getelementptr inbounds %struct.Gia_Obj_t_, ptr %.val8, i64 %17
  %.val.i = load i64, ptr %18, align 4
  %19 = trunc i64 %.val.i to i32
  %20 = and i32 %19, 536870911
  %21 = icmp sgt i32 %16, %20
  br i1 %21, label %22, label %45

22:                                               ; preds = %11
  %23 = load i32, ptr %3, align 4, !tbaa !30
  %24 = load i32, ptr %2, align 8, !tbaa !33
  %25 = icmp eq i32 %23, %24
  br i1 %25, label %26, label %Vec_IntPush.exit

26:                                               ; preds = %22
  %27 = icmp slt i32 %23, 16
  br i1 %27, label %28, label %33

28:                                               ; preds = %26
  %.not9.i.i = icmp eq ptr %13, null
  br i1 %.not9.i.i, label %31, label %29

29:                                               ; preds = %28
  %30 = tail call dereferenceable_or_null(64) ptr @realloc(ptr noundef nonnull %13, i64 noundef 64) #28
  br label %Vec_IntPush.exit.sink.split

31:                                               ; preds = %28
  %32 = tail call noalias dereferenceable_or_null(64) ptr @malloc(i64 noundef 64) #26
  br label %Vec_IntPush.exit.sink.split

33:                                               ; preds = %26
  %34 = shl nuw nsw i32 %23, 1
  %.not9.i9.i = icmp eq ptr %13, null
  %35 = zext nneg i32 %34 to i64
  %36 = shl nuw nsw i64 %35, 2
  br i1 %.not9.i9.i, label %39, label %37

37:                                               ; preds = %33
  %38 = tail call ptr @realloc(ptr noundef nonnull %13, i64 noundef %36) #28
  br label %Vec_IntPush.exit.sink.split

39:                                               ; preds = %33
  %40 = tail call noalias ptr @malloc(i64 noundef %36) #26
  br label %Vec_IntPush.exit.sink.split

Vec_IntPush.exit.sink.split:                      ; preds = %37, %39, %29, %31
  %.sink24 = phi ptr [ %30, %29 ], [ %32, %31 ], [ %38, %37 ], [ %40, %39 ]
  %.sink = phi i32 [ 16, %29 ], [ 16, %31 ], [ %34, %37 ], [ %34, %39 ]
  store ptr %.sink24, ptr %5, align 8, !tbaa !32
  store i32 %.sink, ptr %2, align 8, !tbaa !33
  br label %Vec_IntPush.exit

Vec_IntPush.exit:                                 ; preds = %Vec_IntPush.exit.sink.split, %22
  %.pre.i21 = phi ptr [ %13, %22 ], [ %.sink24, %Vec_IntPush.exit.sink.split ]
  %41 = add nsw i32 %23, 1
  store i32 %41, ptr %3, align 4, !tbaa !30
  %42 = sext i32 %23 to i64
  %43 = getelementptr inbounds i32, ptr %.pre.i21, i64 %42
  %44 = trunc nuw nsw i64 %indvars.iv to i32
  store i32 %44, ptr %43, align 4, !tbaa !35
  %.pre = load ptr, ptr %6, align 8, !tbaa !43
  br label %45

45:                                               ; preds = %11, %Vec_IntPush.exit
  %46 = phi ptr [ %12, %11 ], [ %.pre, %Vec_IntPush.exit ]
  %.pre.i20 = phi ptr [ %13, %11 ], [ %.pre.i21, %Vec_IntPush.exit ]
  %indvars.iv.next = add nuw nsw i64 %indvars.iv, 1
  %47 = getelementptr i8, ptr %46, i64 4
  %.val7 = load i32, ptr %47, align 4, !tbaa !30
  %48 = sext i32 %.val7 to i64
  %49 = icmp slt i64 %indvars.iv.next, %48
  br i1 %49, label %11, label %.critedge, !llvm.loop !161

.critedge:                                        ; preds = %45
  %.val.pre = load i32, ptr %3, align 4, !tbaa !30
  %50 = icmp eq i32 %.val.pre, 0
  br i1 %50, label %.critedge.thread, label %52

.critedge.thread:                                 ; preds = %1, %.critedge
  %51 = phi ptr [ %.pre.i20, %.critedge ], [ %4, %1 ]
  %.not.i = icmp eq ptr %51, null
  br i1 %.not.i, label %Vec_IntFreeP.exit, label %.thread.i

.thread.i:                                        ; preds = %.critedge.thread
  tail call void @free(ptr noundef nonnull %51) #27
  br label %Vec_IntFreeP.exit

Vec_IntFreeP.exit:                                ; preds = %.critedge.thread, %.thread.i
  tail call void @free(ptr noundef nonnull %2) #27
  br label %52

52:                                               ; preds = %Vec_IntFreeP.exit, %.critedge
  %.015 = phi ptr [ null, %Vec_IntFreeP.exit ], [ %2, %.critedge ]
  ret ptr %.015
}